; Function Attrs: mustprogress uwtable
define void @_ZN5Yosys13log_file_infoERKNSt7__cxx1112basic_stringIcSt11char_traitsIcESaIcEEEiPKcz(ptr noundef nonnull align 8 dereferenceable(32) %0, i32 noundef %1, ptr noundef %2, ...) local_unnamed_addr #4 personality ptr @__gxx_personality_v0 {
  %4 = alloca [1 x %struct.__va_list_tag], align 16
  %5 = alloca %"class.std::__cxx11::basic_string", align 8
  call void @llvm.va_start(ptr nonnull %4)
  %6 = call noundef ptr @_ZNKSt7__cxx1112basic_stringIcSt11char_traitsIcESaIcEE5c_strEv(ptr noundef nonnull align 8 dereferenceable(32) %0) #27
  call void (ptr, ptr, ...) @_ZN5Yosys7stringfB5cxx11EPKcz(ptr dead_on_unwind nonnull writable sret(%"class.std::__cxx11::basic_string") align 8 %5, ptr noundef nonnull @.str.33, ptr noundef %6, i32 noundef %1, ptr noundef %2)
  %7 = call noundef ptr @_ZNKSt7__cxx1112basic_stringIcSt11char_traitsIcESaIcEE5c_strEv(ptr noundef nonnull align 8 dereferenceable(32) %5) #27
  invoke void @_ZN5Yosys4logvEPKcP13__va_list_tag(ptr noundef %7, ptr noundef nonnull %4)
          to label %8 unwind label %9

8:                                                ; preds = %3
  call void @llvm.va_end(ptr nonnull %4)
  call void @_ZNSt7__cxx1112basic_stringIcSt11char_traitsIcESaIcEED1Ev(ptr noundef nonnull align 8 dereferenceable(32) %5) #27
  ret void

9:                                                ; preds = %3
  %10 = landingpad { ptr, i32 }
          cleanup
  call void @_ZNSt7__cxx1112basic_stringIcSt11char_traitsIcESaIcEED1Ev(ptr noundef nonnull align 8 dereferenceable(32) %5) #27
  resume { ptr, i32 } %10
}